target datalayout = "e-m:e-p270:32:32-p271:32:32-p272:64:64-i64:64-i128:128-f80:128-n8:16:32:64-S128"
target triple = "x86_64-pc-linux-gnu"

%"struct.std::_Vector_base.593" = type { %"struct.std::_Vector_base<std::vector<El>, std::allocator<std::vector<El>>>::_Vector_impl" }
%"struct.std::_Vector_base<std::vector<El>, std::allocator<std::vector<El>>>::_Vector_impl" = type { %"struct.std::_Vector_base<std::vector<El>, std::allocator<std::vector<El>>>::_Vector_impl_data" }
%"struct.std::_Vector_base<std::vector<El>, std::allocator<std::vector<El>>>::_Vector_impl_data" = type { ptr, ptr, ptr }

; Function Attrs: mustprogress nounwind optsize uwtable
define internal noundef i64 @_ZNKSt15__new_allocatorISt6vectorIZL38nanobind_init_test_stl_bind_vector_extRN8nanobind7module_EE2ElSaIS4_EEE11_M_max_sizeEv(ptr noundef nonnull align 1 dereferenceable(1) %0) #8 align 2 {
  %2 = alloca ptr, align 8
  store ptr %0, ptr %2, align 8, !tbaa !867
  ret i64 384307168202282325
}

; Function Attrs: mustprogress optsize uwtable
define internal noundef ptr @_ZNSt15__new_allocatorISt6vectorIZL38nanobind_init_test_stl_bind_vector_extRN8nanobind7module_EE2ElSaIS4_EEE8allocateEmPKv(ptr noundef nonnull align 1 dereferenceable(1) %0, i64 noundef %1, ptr noundef %2) #0 align 2 {
  %4 = alloca ptr, align 8
  %5 = alloca i64, align 8
  %6 = alloca ptr, align 8
  store ptr %0, ptr %4, align 8, !tbaa !867
  store i64 %1, ptr %5, align 8, !tbaa !104
  store ptr %2, ptr %6, align 8, !tbaa !55
  %7 = load ptr, ptr %4, align 8
  %8 = load i64, ptr %5, align 8, !tbaa !104
  %9 = call noundef i64 @_ZNKSt15__new_allocatorISt6vectorIZL38nanobind_init_test_stl_bind_vector_extRN8nanobind7module_EE2ElSaIS4_EEE11_M_max_sizeEv(ptr noundef nonnull align 1 dereferenceable(1) %7) #22
  %10 = icmp ugt i64 %8, %9
  %11 = zext i1 %10 to i64
  %12 = call i64 @llvm.expect.i64(i64 %11, i64 0)
  %13 = icmp ne i64 %12, 0
  br i1 %13, label %14, label %19

14:                                               ; preds = %3
  %15 = load i64, ptr %5, align 8, !tbaa !104
  %16 = icmp ugt i64 %15, 768614336404564650
  br i1 %16, label %17, label %18

17:                                               ; preds = %14
  call void @_ZSt28__throw_bad_array_new_lengthv() #24
  unreachable

18:                                               ; preds = %14
  call void @_ZSt17__throw_bad_allocv() #24
  unreachable

19:                                               ; preds = %3
  %20 = load i64, ptr %5, align 8, !tbaa !104
  %21 = mul i64 %20, 24
  %22 = call noalias noundef nonnull ptr @_Znwm(i64 noundef %21) #25
  ret ptr %22
}

; Function Attrs: mustprogress optsize uwtable
define internal noundef ptr @_ZNSt16allocator_traitsISaISt6vectorIZL38nanobind_init_test_stl_bind_vector_extRN8nanobind7module_EE2ElSaIS4_EEEE8allocateERS7_m(ptr noundef nonnull align 1 dereferenceable(1) %0, i64 noundef %1) #0 align 2 {
  %3 = alloca ptr, align 8
  %4 = alloca i64, align 8
  store ptr %0, ptr %3, align 8, !tbaa !863
  store i64 %1, ptr %4, align 8, !tbaa !104
  %5 = load ptr, ptr %3, align 8, !tbaa !863
  %6 = load i64, ptr %4, align 8, !tbaa !104
  %7 = call noundef ptr @_ZNSt15__new_allocatorISt6vectorIZL38nanobind_init_test_stl_bind_vector_extRN8nanobind7module_EE2ElSaIS4_EEE8allocateEmPKv(ptr noundef nonnull align 1 dereferenceable(1) %5, i64 noundef %6, ptr noundef null) #20
  ret ptr %7
}

; Function Attrs: mustprogress optsize uwtable
define internal noundef ptr @_ZNSt12_Vector_baseISt6vectorIZL38nanobind_init_test_stl_bind_vector_extRN8nanobind7module_EE2ElSaIS4_EESaIS6_EE11_M_allocateEm(ptr noundef nonnull align 8 dereferenceable(24) %0, i64 noundef %1) #0 align 2 {
  %3 = alloca ptr, align 8
  %4 = alloca i64, align 8
  store ptr %0, ptr %3, align 8, !tbaa !865
  store i64 %1, ptr %4, align 8, !tbaa !104
  %5 = load ptr, ptr %3, align 8
  %6 = load i64, ptr %4, align 8, !tbaa !104
  %7 = icmp ne i64 %6, 0
  br i1 %7, label %8, label %12

8:                                                ; preds = %2
  %9 = getelementptr inbounds nuw %"struct.std::_Vector_base.593", ptr %5, i32 0, i32 0
  %10 = load i64, ptr %4, align 8, !tbaa !104
  %11 = call noundef ptr @_ZNSt16allocator_traitsISaISt6vectorIZL38nanobind_init_test_stl_bind_vector_extRN8nanobind7module_EE2ElSaIS4_EEEE8allocateERS7_m(ptr noundef nonnull align 1 dereferenceable(1) %9, i64 noundef %10) #20
  br label %13

12:                                               ; preds = %2
  br label %13

13:                                               ; preds = %12, %8
  %14 = phi ptr [ %11, %8 ], [ null, %12 ]
  ret ptr %14
}