; Function Attrs: mustprogress optsize uwtable
define internal fastcc noalias noundef ptr @_ZNSt12_Vector_baseISt6vectorIZL38nanobind_init_test_stl_bind_vector_extRN8nanobind7module_EE2ElSaIS4_EESaIS6_EE11_M_allocateEm(i64 noundef %0) unnamed_addr #0 align 2 {
  %.not = icmp eq i64 %0, 0
  br i1 %.not, label %10, label %2

2:                                                ; preds = %1
  %3 = icmp ugt i64 %0, 384307168202282325
  br i1 %3, label %4, label %_ZNSt16allocator_traitsISaISt6vectorIZL38nanobind_init_test_stl_bind_vector_extRN8nanobind7module_EE2ElSaIS4_EEEE8allocateERS7_m.exit, !prof !108

4:                                                ; preds = %2
  %5 = icmp ugt i64 %0, 768614336404564650
  br i1 %5, label %6, label %7

6:                                                ; preds = %4
  tail call void @_ZSt28__throw_bad_array_new_lengthv() #30
  unreachable

7:                                                ; preds = %4
  tail call void @_ZSt17__throw_bad_allocv() #30
  unreachable

_ZNSt16allocator_traitsISaISt6vectorIZL38nanobind_init_test_stl_bind_vector_extRN8nanobind7module_EE2ElSaIS4_EEEE8allocateERS7_m.exit: ; preds = %2
  %8 = mul nuw nsw i64 %0, 24
  %9 = tail call noalias noundef nonnull ptr @_Znwm(i64 noundef %8) #31
  br label %10

10:                                               ; preds = %1, %_ZNSt16allocator_traitsISaISt6vectorIZL38nanobind_init_test_stl_bind_vector_extRN8nanobind7module_EE2ElSaIS4_EEEE8allocateERS7_m.exit
  %11 = phi ptr [ %9, %_ZNSt16allocator_traitsISaISt6vectorIZL38nanobind_init_test_stl_bind_vector_extRN8nanobind7module_EE2ElSaIS4_EEEE8allocateERS7_m.exit ], [ null, %1 ]
  ret ptr %11
}